target datalayout = "e-m:e-p270:32:32-p271:32:32-p272:64:64-i64:64-i128:128-f80:128-n8:16:32:64-S128"
target triple = "x86_64-pc-linux-gnu"

%struct.DdNode = type { i32, i32, ptr, %union.anon, i64 }
%union.anon = type { %struct.DdChildren }
%struct.DdChildren = type { ptr, ptr }

; Function Attrs: nounwind uwtable
define i32 @Extra_bddIsVar(ptr noundef %0) #0 {
  %2 = alloca i32, align 4
  %3 = alloca ptr, align 8
  store ptr %0, ptr %3, align 8, !tbaa !8
  %4 = load ptr, ptr %3, align 8, !tbaa !8
  %5 = ptrtoint ptr %4 to i64
  %6 = and i64 %5, -2
  %7 = inttoptr i64 %6 to ptr
  store ptr %7, ptr %3, align 8, !tbaa !8
  %8 = load ptr, ptr %3, align 8, !tbaa !8
  %9 = getelementptr inbounds nuw %struct.DdNode, ptr %8, i32 0, i32 0
  %10 = load i32, ptr %9, align 8, !tbaa !42
  %11 = icmp eq i32 %10, 2147483647
  br i1 %11, label %12, label %13

12:                                               ; preds = %1
  store i32 0, ptr %2, align 4
  br label %35

13:                                               ; preds = %1
  %14 = load ptr, ptr %3, align 8, !tbaa !8
  %15 = getelementptr inbounds nuw %struct.DdNode, ptr %14, i32 0, i32 3
  %16 = getelementptr inbounds nuw %struct.DdChildren, ptr %15, i32 0, i32 0
  %17 = load ptr, ptr %16, align 8, !tbaa !43
  %18 = getelementptr inbounds nuw %struct.DdNode, ptr %17, i32 0, i32 0
  %19 = load i32, ptr %18, align 8, !tbaa !42
  %20 = icmp eq i32 %19, 2147483647
  br i1 %20, label %21, label %32

21:                                               ; preds = %13
  %22 = load ptr, ptr %3, align 8, !tbaa !8
  %23 = getelementptr inbounds nuw %struct.DdNode, ptr %22, i32 0, i32 3
  %24 = getelementptr inbounds nuw %struct.DdChildren, ptr %23, i32 0, i32 1
  %25 = load ptr, ptr %24, align 8, !tbaa !43
  %26 = ptrtoint ptr %25 to i64
  %27 = and i64 %26, -2
  %28 = inttoptr i64 %27 to ptr
  %29 = getelementptr inbounds nuw %struct.DdNode, ptr %28, i32 0, i32 0
  %30 = load i32, ptr %29, align 8, !tbaa !42
  %31 = icmp eq i32 %30, 2147483647
  br label %32

32:                                               ; preds = %21, %13
  %33 = phi i1 [ false, %13 ], [ %31, %21 ]
  %34 = zext i1 %33 to i32
  store i32 %34, ptr %2, align 4
  br label %35

35:                                               ; preds = %32, %12
  %36 = load i32, ptr %2, align 4
  ret i32 %36
}