; Function Attrs: mustprogress nofree norecurse nosync nounwind willreturn memory(read, inaccessiblemem: none) uwtable
define range(i32 0, 2) i32 @Extra_bddIsVar(ptr noundef %0) local_unnamed_addr #9 {
  %2 = ptrtoint ptr %0 to i64
  %3 = and i64 %2, -2
  %4 = inttoptr i64 %3 to ptr
  %5 = load i32, ptr %4, align 8, !tbaa !35
  %6 = icmp eq i32 %5, 2147483647
  br i1 %6, label %21, label %7

7:                                                ; preds = %1
  %8 = getelementptr inbounds nuw i8, ptr %4, i64 16
  %9 = load ptr, ptr %8, align 8, !tbaa !36
  %10 = load i32, ptr %9, align 8, !tbaa !35
  %11 = icmp eq i32 %10, 2147483647
  br i1 %11, label %12, label %21

12:                                               ; preds = %7
  %13 = getelementptr inbounds nuw i8, ptr %4, i64 24
  %14 = load ptr, ptr %13, align 8, !tbaa !36
  %15 = ptrtoint ptr %14 to i64
  %16 = and i64 %15, -2
  %17 = inttoptr i64 %16 to ptr
  %18 = load i32, ptr %17, align 8, !tbaa !35
  %19 = icmp eq i32 %18, 2147483647
  %20 = zext i1 %19 to i32
  br label %21

21:                                               ; preds = %7, %12, %1
  %.0 = phi i32 [ 0, %1 ], [ 0, %7 ], [ %20, %12 ]
  ret i32 %.0
}